target datalayout = "e-m:e-p270:32:32-p271:32:32-p272:64:64-i64:64-i128:128-f80:128-n8:16:32:64-S128"
target triple = "x86_64-pc-linux-gnu"

%struct.JNINativeInterface_ = type { ptr, ptr, ptr, ptr, ptr, ptr, ptr, ptr, ptr, ptr, ptr, ptr, ptr, ptr, ptr, ptr, ptr, ptr, ptr, ptr, ptr, ptr, ptr, ptr, ptr, ptr, ptr, ptr, ptr, ptr, ptr, ptr, ptr, ptr, ptr, ptr, ptr, ptr, ptr, ptr, ptr, ptr, ptr, ptr, ptr, ptr, ptr, ptr, ptr, ptr, ptr, ptr, ptr, ptr, ptr, ptr, ptr, ptr, ptr, ptr, ptr, ptr, ptr, ptr, ptr, ptr, ptr, ptr, ptr, ptr, ptr, ptr, ptr, ptr, ptr, ptr, ptr, ptr, ptr, ptr, ptr, ptr, ptr, ptr, ptr, ptr, ptr, ptr, ptr, ptr, ptr, ptr, ptr, ptr, ptr, ptr, ptr, ptr, ptr, ptr, ptr, ptr, ptr, ptr, ptr, ptr, ptr, ptr, ptr, ptr, ptr, ptr, ptr, ptr, ptr, ptr, ptr, ptr, ptr, ptr, ptr, ptr, ptr, ptr, ptr, ptr, ptr, ptr, ptr, ptr, ptr, ptr, ptr, ptr, ptr, ptr, ptr, ptr, ptr, ptr, ptr, ptr, ptr, ptr, ptr, ptr, ptr, ptr, ptr, ptr, ptr, ptr, ptr, ptr, ptr, ptr, ptr, ptr, ptr, ptr, ptr, ptr, ptr, ptr, ptr, ptr, ptr, ptr, ptr, ptr, ptr, ptr, ptr, ptr, ptr, ptr, ptr, ptr, ptr, ptr, ptr, ptr, ptr, ptr, ptr, ptr, ptr, ptr, ptr, ptr, ptr, ptr, ptr, ptr, ptr, ptr, ptr, ptr, ptr, ptr, ptr, ptr, ptr, ptr, ptr, ptr, ptr, ptr, ptr, ptr, ptr, ptr, ptr, ptr, ptr, ptr, ptr, ptr, ptr, ptr, ptr, ptr, ptr, ptr, ptr, ptr, ptr, ptr, ptr, ptr, ptr, ptr, ptr, ptr, ptr }

@fp_g_object_unref = internal global ptr null, align 8
@fp_gdk_pixbuf_get_width = internal global ptr null, align 8
@fp_gdk_pixbuf_get_height = internal global ptr null, align 8
@fp_gdk_pixbuf_get_pixels = internal global ptr null, align 8
@fp_gdk_pixbuf_get_rowstride = internal global ptr null, align 8
@fp_gdk_pixbuf_get_has_alpha = internal global ptr null, align 8
@fp_gdk_pixbuf_get_bits_per_sample = internal global ptr null, align 8
@fp_gdk_pixbuf_get_n_channels = internal global ptr null, align 8

; Function Attrs: nounwind uwtable
define internal zeroext i8 @gtk2_get_pixbuf_data(ptr noundef %0, ptr noundef %1, ptr noundef %2, ptr noundef %3) #0 {
  %5 = alloca i8, align 1
  %6 = alloca ptr, align 8
  %7 = alloca ptr, align 8
  %8 = alloca ptr, align 8
  %9 = alloca ptr, align 8
  %10 = alloca ptr, align 8
  %11 = alloca i32, align 4
  %12 = alloca i32, align 4
  %13 = alloca i32, align 4
  %14 = alloca i32, align 4
  %15 = alloca i32, align 4
  %16 = alloca i32, align 4
  %17 = alloca ptr, align 8
  store ptr %0, ptr %6, align 8
  store ptr %1, ptr %7, align 8
  store ptr %2, ptr %8, align 8
  store ptr %3, ptr %9, align 8
  %18 = load ptr, ptr %7, align 8
  %19 = icmp ne ptr %18, null
  br i1 %19, label %21, label %20

20:                                               ; preds = %4
  store i8 0, ptr %5, align 1
  br label %93

21:                                               ; preds = %4
  %22 = load ptr, ptr @fp_gdk_pixbuf_get_pixels, align 8
  %23 = load ptr, ptr %7, align 8
  %24 = call ptr %22(ptr noundef %23)
  store ptr %24, ptr %10, align 8
  %25 = load ptr, ptr %10, align 8
  %26 = icmp ne ptr %25, null
  br i1 %26, label %27, label %92

27:                                               ; preds = %21
  %28 = load ptr, ptr @fp_gdk_pixbuf_get_rowstride, align 8
  %29 = load ptr, ptr %7, align 8
  %30 = call i32 %28(ptr noundef %29)
  store i32 %30, ptr %11, align 4
  %31 = load ptr, ptr @fp_gdk_pixbuf_get_width, align 8
  %32 = load ptr, ptr %7, align 8
  %33 = call i32 %31(ptr noundef %32)
  store i32 %33, ptr %12, align 4
  %34 = load ptr, ptr @fp_gdk_pixbuf_get_height, align 8
  %35 = load ptr, ptr %7, align 8
  %36 = call i32 %34(ptr noundef %35)
  store i32 %36, ptr %13, align 4
  %37 = load ptr, ptr @fp_gdk_pixbuf_get_bits_per_sample, align 8
  %38 = load ptr, ptr %7, align 8
  %39 = call i32 %37(ptr noundef %38)
  store i32 %39, ptr %14, align 4
  %40 = load ptr, ptr @fp_gdk_pixbuf_get_n_channels, align 8
  %41 = load ptr, ptr %7, align 8
  %42 = call i32 %40(ptr noundef %41)
  store i32 %42, ptr %15, align 4
  %43 = load ptr, ptr @fp_gdk_pixbuf_get_has_alpha, align 8
  %44 = load ptr, ptr %7, align 8
  %45 = call i32 %43(ptr noundef %44)
  store i32 %45, ptr %16, align 4
  %46 = load ptr, ptr %6, align 8
  %47 = load ptr, ptr %46, align 8
  %48 = getelementptr inbounds %struct.JNINativeInterface_, ptr %47, i32 0, i32 176
  %49 = load ptr, ptr %48, align 8
  %50 = load ptr, ptr %6, align 8
  %51 = load i32, ptr %11, align 4
  %52 = load i32, ptr %13, align 4
  %53 = mul nsw i32 %51, %52
  %54 = call ptr %49(ptr noundef %50, i32 noundef %53)
  store ptr %54, ptr %17, align 8
  br label %55

55:                                               ; preds = %27
  %56 = load ptr, ptr %6, align 8
  %57 = load ptr, ptr %56, align 8
  %58 = getelementptr inbounds %struct.JNINativeInterface_, ptr %57, i32 0, i32 228
  %59 = load ptr, ptr %58, align 8
  %60 = load ptr, ptr %6, align 8
  %61 = call zeroext i8 %59(ptr noundef %60)
  %62 = icmp ne i8 %61, 0
  br i1 %62, label %63, label %64

63:                                               ; preds = %55
  store i8 0, ptr %5, align 1
  br label %93

64:                                               ; preds = %55
  br label %65

65:                                               ; preds = %64
  %66 = load ptr, ptr %6, align 8
  %67 = load ptr, ptr %66, align 8
  %68 = getelementptr inbounds %struct.JNINativeInterface_, ptr %67, i32 0, i32 208
  %69 = load ptr, ptr %68, align 8
  %70 = load ptr, ptr %6, align 8
  %71 = load ptr, ptr %17, align 8
  %72 = load i32, ptr %11, align 4
  %73 = load i32, ptr %13, align 4
  %74 = mul nsw i32 %72, %73
  %75 = load ptr, ptr %10, align 8
  call void %69(ptr noundef %70, ptr noundef %71, i32 noundef 0, i32 noundef %74, ptr noundef %75)
  %76 = load ptr, ptr @fp_g_object_unref, align 8
  %77 = load ptr, ptr %7, align 8
  call void %76(ptr noundef %77)
  %78 = load ptr, ptr %6, align 8
  %79 = load ptr, ptr %78, align 8
  %80 = getelementptr inbounds %struct.JNINativeInterface_, ptr %79, i32 0, i32 61
  %81 = load ptr, ptr %80, align 8
  %82 = load ptr, ptr %6, align 8
  %83 = load ptr, ptr %9, align 8
  %84 = load ptr, ptr %8, align 8
  %85 = load ptr, ptr %17, align 8
  %86 = load i32, ptr %12, align 4
  %87 = load i32, ptr %13, align 4
  %88 = load i32, ptr %11, align 4
  %89 = load i32, ptr %14, align 4
  %90 = load i32, ptr %15, align 4
  %91 = load i32, ptr %16, align 4
  call void (ptr, ptr, ptr, ...) %81(ptr noundef %82, ptr noundef %83, ptr noundef %84, ptr noundef %85, i32 noundef %86, i32 noundef %87, i32 noundef %88, i32 noundef %89, i32 noundef %90, i32 noundef %91)
  store i8 1, ptr %5, align 1
  br label %93

92:                                               ; preds = %21
  store i8 0, ptr %5, align 1
  br label %93

93:                                               ; preds = %92, %65, %63, %20
  %94 = load i8, ptr %5, align 1
  ret i8 %94
}