; Function Attrs: nounwind uwtable
define internal fastcc zeroext range(i8 0, 2) i8 @gtk2_get_pixbuf_data(ptr noundef %0, ptr noundef %1, ptr noundef %2, ptr noundef %3) unnamed_addr #0 {
  %.not = icmp eq ptr %1, null
  br i1 %.not, label %38, label %5

5:                                                ; preds = %4
  %6 = load ptr, ptr @fp_gdk_pixbuf_get_pixels, align 8
  %7 = tail call ptr %6(ptr noundef nonnull %1) #18
  %.not35 = icmp eq ptr %7, null
  br i1 %.not35, label %38, label %8

8:                                                ; preds = %5
  %9 = load ptr, ptr @fp_gdk_pixbuf_get_rowstride, align 8
  %10 = tail call i32 %9(ptr noundef nonnull %1) #18
  %11 = load ptr, ptr @fp_gdk_pixbuf_get_width, align 8
  %12 = tail call i32 %11(ptr noundef nonnull %1) #18
  %13 = load ptr, ptr @fp_gdk_pixbuf_get_height, align 8
  %14 = tail call i32 %13(ptr noundef nonnull %1) #18
  %15 = load ptr, ptr @fp_gdk_pixbuf_get_bits_per_sample, align 8
  %16 = tail call i32 %15(ptr noundef nonnull %1) #18
  %17 = load ptr, ptr @fp_gdk_pixbuf_get_n_channels, align 8
  %18 = tail call i32 %17(ptr noundef nonnull %1) #18
  %19 = load ptr, ptr @fp_gdk_pixbuf_get_has_alpha, align 8
  %20 = tail call i32 %19(ptr noundef nonnull %1) #18
  %21 = load ptr, ptr %0, align 8
  %22 = getelementptr inbounds i8, ptr %21, i64 1408
  %23 = load ptr, ptr %22, align 8
  %24 = mul nsw i32 %14, %10
  %25 = tail call ptr %23(ptr noundef nonnull %0, i32 noundef %24) #18
  %26 = load ptr, ptr %0, align 8
  %27 = getelementptr inbounds i8, ptr %26, i64 1824
  %28 = load ptr, ptr %27, align 8
  %29 = tail call zeroext i8 %28(ptr noundef nonnull %0) #18
  %.not36 = icmp eq i8 %29, 0
  br i1 %.not36, label %30, label %38

30:                                               ; preds = %8
  %31 = load ptr, ptr %0, align 8
  %32 = getelementptr inbounds i8, ptr %31, i64 1664
  %33 = load ptr, ptr %32, align 8
  tail call void %33(ptr noundef nonnull %0, ptr noundef %25, i32 noundef 0, i32 noundef %24, ptr noundef nonnull %7) #18
  %34 = load ptr, ptr @fp_g_object_unref, align 8
  tail call void %34(ptr noundef nonnull %1) #18
  %35 = load ptr, ptr %0, align 8
  %36 = getelementptr inbounds i8, ptr %35, i64 488
  %37 = load ptr, ptr %36, align 8
  tail call void (ptr, ptr, ptr, ...) %37(ptr noundef nonnull %0, ptr noundef %3, ptr noundef %2, ptr noundef %25, i32 noundef %12, i32 noundef %14, i32 noundef %10, i32 noundef %16, i32 noundef %18, i32 noundef %20) #18
  br label %38

38:                                               ; preds = %5, %8, %4, %30
  %.0 = phi i8 [ 1, %30 ], [ 0, %4 ], [ 0, %8 ], [ 0, %5 ]
  ret i8 %.0
}